; Function Attrs: mustprogress uwtable
define void @_ZN8proxygen22ZstdStreamDecompressorC2Eb(ptr nocapture noundef nonnull writeonly align 8 dereferenceable(33) %this, i1 noundef zeroext %reuseOutBuf) unnamed_addr #0 align 2 personality ptr @__gxx_personality_v0 {
entry:
  store ptr getelementptr inbounds ({ [7 x ptr] }, ptr @_ZTVN8proxygen22ZstdStreamDecompressorE, i64 0, i32 0, i64 2), ptr %this, align 8
  %status_ = getelementptr inbounds i8, ptr %this, i64 8
  store i32 0, ptr %status_, align 8
  %call = tail call ptr @ZSTD_createDCtx()
  %dctx_ = getelementptr inbounds i8, ptr %this, i64 16
  %frombool = zext i1 %reuseOutBuf to i8
  store ptr %call, ptr %dctx_, align 8
  %cachedIOBuf_ = getelementptr inbounds i8, ptr %this, i64 24
  store ptr null, ptr %cachedIOBuf_, align 8
  %reuseOutBuf_ = getelementptr inbounds i8, ptr %this, i64 32
  store i8 %frombool, ptr %reuseOutBuf_, align 8
  ret void
}